ARM GAS  /tmp/cc9kh5Dc.s 			page 1


   1              		.cpu cortex-m0
   2              		.eabi_attribute 20, 1
   3              		.eabi_attribute 21, 1
   4              		.eabi_attribute 23, 3
   5              		.eabi_attribute 24, 1
   6              		.eabi_attribute 25, 1
   7              		.eabi_attribute 26, 1
   8              		.eabi_attribute 30, 1
   9              		.eabi_attribute 34, 0
  10              		.eabi_attribute 18, 4
  11              		.file	"stm32f0xx_rcc.c"
  12              		.text
  13              		.section	.text.RCC_DeInit,"ax",%progbits
  14              		.align	1
  15              		.global	RCC_DeInit
  16              		.syntax unified
  17              		.code	16
  18              		.thumb_func
  19              		.fpu softvfp
  21              	RCC_DeInit:
  22              		@ args = 0, pretend = 0, frame = 0
  23              		@ frame_needed = 0, uses_anonymous_args = 0
  24              		@ link register save eliminated.
  25 0000 114B     		ldr	r3, .L2
  26 0002 1A68     		ldr	r2, [r3]
  27 0004 0121     		movs	r1, #1
  28 0006 0A43     		orrs	r2, r1
  29 0008 1A60     		str	r2, [r3]
  30 000a 5A68     		ldr	r2, [r3, #4]
  31 000c 0F48     		ldr	r0, .L2+4
  32 000e 0240     		ands	r2, r0
  33 0010 5A60     		str	r2, [r3, #4]
  34 0012 1A68     		ldr	r2, [r3]
  35 0014 0E48     		ldr	r0, .L2+8
  36 0016 0240     		ands	r2, r0
  37 0018 1A60     		str	r2, [r3]
  38 001a 1A68     		ldr	r2, [r3]
  39 001c 0D48     		ldr	r0, .L2+12
  40 001e 0240     		ands	r2, r0
  41 0020 1A60     		str	r2, [r3]
  42 0022 5A68     		ldr	r2, [r3, #4]
  43 0024 0C48     		ldr	r0, .L2+16
  44 0026 0240     		ands	r2, r0
  45 0028 5A60     		str	r2, [r3, #4]
  46 002a DA6A     		ldr	r2, [r3, #44]
  47 002c 0F20     		movs	r0, #15
  48 002e 8243     		bics	r2, r0
  49 0030 DA62     		str	r2, [r3, #44]
  50 0032 1A6B     		ldr	r2, [r3, #48]
  51 0034 0948     		ldr	r0, .L2+20
  52 0036 0240     		ands	r2, r0
  53 0038 1A63     		str	r2, [r3, #48]
  54 003a 5A6B     		ldr	r2, [r3, #52]
  55 003c 8A43     		bics	r2, r1
  56 003e 5A63     		str	r2, [r3, #52]
  57 0040 0022     		movs	r2, #0
  58 0042 9A60     		str	r2, [r3, #8]
ARM GAS  /tmp/cc9kh5Dc.s 			page 2


  59              		@ sp needed
  60 0044 7047     		bx	lr
  61              	.L3:
  62 0046 C046     		.align	2
  63              	.L2:
  64 0048 00100240 		.word	1073876992
  65 004c 0CB8FF08 		.word	150976524
  66 0050 FFFFF6FE 		.word	-17367041
  67 0054 FFFFFBFF 		.word	-262145
  68 0058 FFFFC0FF 		.word	-4128769
  69 005c ACFEF0FF 		.word	-983380
  71              		.section	.text.RCC_HSEConfig,"ax",%progbits
  72              		.align	1
  73              		.global	RCC_HSEConfig
  74              		.syntax unified
  75              		.code	16
  76              		.thumb_func
  77              		.fpu softvfp
  79              	RCC_HSEConfig:
  80              		@ args = 0, pretend = 0, frame = 0
  81              		@ frame_needed = 0, uses_anonymous_args = 0
  82              		@ link register save eliminated.
  83 0000 024B     		ldr	r3, .L5
  84 0002 0022     		movs	r2, #0
  85 0004 1A70     		strb	r2, [r3]
  86 0006 1870     		strb	r0, [r3]
  87              		@ sp needed
  88 0008 7047     		bx	lr
  89              	.L6:
  90 000a C046     		.align	2
  91              	.L5:
  92 000c 02100240 		.word	1073876994
  94              		.section	.text.RCC_AdjustHSICalibrationValue,"ax",%progbits
  95              		.align	1
  96              		.global	RCC_AdjustHSICalibrationValue
  97              		.syntax unified
  98              		.code	16
  99              		.thumb_func
 100              		.fpu softvfp
 102              	RCC_AdjustHSICalibrationValue:
 103              		@ args = 0, pretend = 0, frame = 0
 104              		@ frame_needed = 0, uses_anonymous_args = 0
 105              		@ link register save eliminated.
 106 0000 034A     		ldr	r2, .L8
 107 0002 1368     		ldr	r3, [r2]
 108 0004 F821     		movs	r1, #248
 109 0006 8B43     		bics	r3, r1
 110 0008 C000     		lsls	r0, r0, #3
 111 000a 1843     		orrs	r0, r3
 112 000c 1060     		str	r0, [r2]
 113              		@ sp needed
 114 000e 7047     		bx	lr
 115              	.L9:
 116              		.align	2
 117              	.L8:
 118 0010 00100240 		.word	1073876992
 120              		.section	.text.RCC_HSICmd,"ax",%progbits
ARM GAS  /tmp/cc9kh5Dc.s 			page 3


 121              		.align	1
 122              		.global	RCC_HSICmd
 123              		.syntax unified
 124              		.code	16
 125              		.thumb_func
 126              		.fpu softvfp
 128              	RCC_HSICmd:
 129              		@ args = 0, pretend = 0, frame = 0
 130              		@ frame_needed = 0, uses_anonymous_args = 0
 131              		@ link register save eliminated.
 132 0000 0028     		cmp	r0, #0
 133 0002 05D1     		bne	.L13
 134 0004 054A     		ldr	r2, .L14
 135 0006 1368     		ldr	r3, [r2]
 136 0008 0121     		movs	r1, #1
 137 000a 8B43     		bics	r3, r1
 138 000c 1360     		str	r3, [r2]
 139              	.L10:
 140              		@ sp needed
 141 000e 7047     		bx	lr
 142              	.L13:
 143 0010 024A     		ldr	r2, .L14
 144 0012 1368     		ldr	r3, [r2]
 145 0014 0121     		movs	r1, #1
 146 0016 0B43     		orrs	r3, r1
 147 0018 1360     		str	r3, [r2]
 148 001a F8E7     		b	.L10
 149              	.L15:
 150              		.align	2
 151              	.L14:
 152 001c 00100240 		.word	1073876992
 154              		.section	.text.RCC_AdjustHSI14CalibrationValue,"ax",%progbits
 155              		.align	1
 156              		.global	RCC_AdjustHSI14CalibrationValue
 157              		.syntax unified
 158              		.code	16
 159              		.thumb_func
 160              		.fpu softvfp
 162              	RCC_AdjustHSI14CalibrationValue:
 163              		@ args = 0, pretend = 0, frame = 0
 164              		@ frame_needed = 0, uses_anonymous_args = 0
 165              		@ link register save eliminated.
 166 0000 034A     		ldr	r2, .L17
 167 0002 536B     		ldr	r3, [r2, #52]
 168 0004 F821     		movs	r1, #248
 169 0006 8B43     		bics	r3, r1
 170 0008 C000     		lsls	r0, r0, #3
 171 000a 1843     		orrs	r0, r3
 172 000c 5063     		str	r0, [r2, #52]
 173              		@ sp needed
 174 000e 7047     		bx	lr
 175              	.L18:
 176              		.align	2
 177              	.L17:
 178 0010 00100240 		.word	1073876992
 180              		.section	.text.RCC_HSI14Cmd,"ax",%progbits
 181              		.align	1
ARM GAS  /tmp/cc9kh5Dc.s 			page 4


 182              		.global	RCC_HSI14Cmd
 183              		.syntax unified
 184              		.code	16
 185              		.thumb_func
 186              		.fpu softvfp
 188              	RCC_HSI14Cmd:
 189              		@ args = 0, pretend = 0, frame = 0
 190              		@ frame_needed = 0, uses_anonymous_args = 0
 191              		@ link register save eliminated.
 192 0000 0028     		cmp	r0, #0
 193 0002 05D1     		bne	.L22
 194 0004 054A     		ldr	r2, .L23
 195 0006 536B     		ldr	r3, [r2, #52]
 196 0008 0121     		movs	r1, #1
 197 000a 8B43     		bics	r3, r1
 198 000c 5363     		str	r3, [r2, #52]
 199              	.L19:
 200              		@ sp needed
 201 000e 7047     		bx	lr
 202              	.L22:
 203 0010 024A     		ldr	r2, .L23
 204 0012 536B     		ldr	r3, [r2, #52]
 205 0014 0121     		movs	r1, #1
 206 0016 0B43     		orrs	r3, r1
 207 0018 5363     		str	r3, [r2, #52]
 208 001a F8E7     		b	.L19
 209              	.L24:
 210              		.align	2
 211              	.L23:
 212 001c 00100240 		.word	1073876992
 214              		.section	.text.RCC_HSI14ADCRequestCmd,"ax",%progbits
 215              		.align	1
 216              		.global	RCC_HSI14ADCRequestCmd
 217              		.syntax unified
 218              		.code	16
 219              		.thumb_func
 220              		.fpu softvfp
 222              	RCC_HSI14ADCRequestCmd:
 223              		@ args = 0, pretend = 0, frame = 0
 224              		@ frame_needed = 0, uses_anonymous_args = 0
 225              		@ link register save eliminated.
 226 0000 0028     		cmp	r0, #0
 227 0002 05D1     		bne	.L28
 228 0004 054A     		ldr	r2, .L29
 229 0006 536B     		ldr	r3, [r2, #52]
 230 0008 0421     		movs	r1, #4
 231 000a 0B43     		orrs	r3, r1
 232 000c 5363     		str	r3, [r2, #52]
 233              	.L25:
 234              		@ sp needed
 235 000e 7047     		bx	lr
 236              	.L28:
 237 0010 024A     		ldr	r2, .L29
 238 0012 536B     		ldr	r3, [r2, #52]
 239 0014 0421     		movs	r1, #4
 240 0016 8B43     		bics	r3, r1
 241 0018 5363     		str	r3, [r2, #52]
ARM GAS  /tmp/cc9kh5Dc.s 			page 5


 242 001a F8E7     		b	.L25
 243              	.L30:
 244              		.align	2
 245              	.L29:
 246 001c 00100240 		.word	1073876992
 248              		.section	.text.RCC_LSEConfig,"ax",%progbits
 249              		.align	1
 250              		.global	RCC_LSEConfig
 251              		.syntax unified
 252              		.code	16
 253              		.thumb_func
 254              		.fpu softvfp
 256              	RCC_LSEConfig:
 257              		@ args = 0, pretend = 0, frame = 0
 258              		@ frame_needed = 0, uses_anonymous_args = 0
 259              		@ link register save eliminated.
 260 0000 064B     		ldr	r3, .L32
 261 0002 1A6A     		ldr	r2, [r3, #32]
 262 0004 0121     		movs	r1, #1
 263 0006 8A43     		bics	r2, r1
 264 0008 1A62     		str	r2, [r3, #32]
 265 000a 1A6A     		ldr	r2, [r3, #32]
 266 000c 0331     		adds	r1, r1, #3
 267 000e 8A43     		bics	r2, r1
 268 0010 1A62     		str	r2, [r3, #32]
 269 0012 1A6A     		ldr	r2, [r3, #32]
 270 0014 1043     		orrs	r0, r2
 271 0016 1862     		str	r0, [r3, #32]
 272              		@ sp needed
 273 0018 7047     		bx	lr
 274              	.L33:
 275 001a C046     		.align	2
 276              	.L32:
 277 001c 00100240 		.word	1073876992
 279              		.section	.text.RCC_LSEDriveConfig,"ax",%progbits
 280              		.align	1
 281              		.global	RCC_LSEDriveConfig
 282              		.syntax unified
 283              		.code	16
 284              		.thumb_func
 285              		.fpu softvfp
 287              	RCC_LSEDriveConfig:
 288              		@ args = 0, pretend = 0, frame = 0
 289              		@ frame_needed = 0, uses_anonymous_args = 0
 290              		@ link register save eliminated.
 291 0000 044B     		ldr	r3, .L35
 292 0002 1A6A     		ldr	r2, [r3, #32]
 293 0004 1821     		movs	r1, #24
 294 0006 8A43     		bics	r2, r1
 295 0008 1A62     		str	r2, [r3, #32]
 296 000a 1A6A     		ldr	r2, [r3, #32]
 297 000c 1043     		orrs	r0, r2
 298 000e 1862     		str	r0, [r3, #32]
 299              		@ sp needed
 300 0010 7047     		bx	lr
 301              	.L36:
 302 0012 C046     		.align	2
ARM GAS  /tmp/cc9kh5Dc.s 			page 6


 303              	.L35:
 304 0014 00100240 		.word	1073876992
 306              		.section	.text.RCC_LSICmd,"ax",%progbits
 307              		.align	1
 308              		.global	RCC_LSICmd
 309              		.syntax unified
 310              		.code	16
 311              		.thumb_func
 312              		.fpu softvfp
 314              	RCC_LSICmd:
 315              		@ args = 0, pretend = 0, frame = 0
 316              		@ frame_needed = 0, uses_anonymous_args = 0
 317              		@ link register save eliminated.
 318 0000 0028     		cmp	r0, #0
 319 0002 05D1     		bne	.L40
 320 0004 054A     		ldr	r2, .L41
 321 0006 536A     		ldr	r3, [r2, #36]
 322 0008 0121     		movs	r1, #1
 323 000a 8B43     		bics	r3, r1
 324 000c 5362     		str	r3, [r2, #36]
 325              	.L37:
 326              		@ sp needed
 327 000e 7047     		bx	lr
 328              	.L40:
 329 0010 024A     		ldr	r2, .L41
 330 0012 536A     		ldr	r3, [r2, #36]
 331 0014 0121     		movs	r1, #1
 332 0016 0B43     		orrs	r3, r1
 333 0018 5362     		str	r3, [r2, #36]
 334 001a F8E7     		b	.L37
 335              	.L42:
 336              		.align	2
 337              	.L41:
 338 001c 00100240 		.word	1073876992
 340              		.section	.text.RCC_PLLConfig,"ax",%progbits
 341              		.align	1
 342              		.global	RCC_PLLConfig
 343              		.syntax unified
 344              		.code	16
 345              		.thumb_func
 346              		.fpu softvfp
 348              	RCC_PLLConfig:
 349              		@ args = 0, pretend = 0, frame = 0
 350              		@ frame_needed = 0, uses_anonymous_args = 0
 351 0000 10B5     		push	{r4, lr}
 352 0002 054B     		ldr	r3, .L44
 353 0004 5A68     		ldr	r2, [r3, #4]
 354 0006 054C     		ldr	r4, .L44+4
 355 0008 2240     		ands	r2, r4
 356 000a 5A60     		str	r2, [r3, #4]
 357 000c 5A68     		ldr	r2, [r3, #4]
 358 000e 0143     		orrs	r1, r0
 359 0010 1143     		orrs	r1, r2
 360 0012 5960     		str	r1, [r3, #4]
 361              		@ sp needed
 362 0014 10BD     		pop	{r4, pc}
 363              	.L45:
ARM GAS  /tmp/cc9kh5Dc.s 			page 7


 364 0016 C046     		.align	2
 365              	.L44:
 366 0018 00100240 		.word	1073876992
 367 001c FF7FC2FF 		.word	-4030465
 369              		.section	.text.RCC_PLLCmd,"ax",%progbits
 370              		.align	1
 371              		.global	RCC_PLLCmd
 372              		.syntax unified
 373              		.code	16
 374              		.thumb_func
 375              		.fpu softvfp
 377              	RCC_PLLCmd:
 378              		@ args = 0, pretend = 0, frame = 0
 379              		@ frame_needed = 0, uses_anonymous_args = 0
 380              		@ link register save eliminated.
 381 0000 0028     		cmp	r0, #0
 382 0002 05D1     		bne	.L49
 383 0004 064A     		ldr	r2, .L50
 384 0006 1368     		ldr	r3, [r2]
 385 0008 0649     		ldr	r1, .L50+4
 386 000a 0B40     		ands	r3, r1
 387 000c 1360     		str	r3, [r2]
 388              	.L46:
 389              		@ sp needed
 390 000e 7047     		bx	lr
 391              	.L49:
 392 0010 034A     		ldr	r2, .L50
 393 0012 1168     		ldr	r1, [r2]
 394 0014 8023     		movs	r3, #128
 395 0016 5B04     		lsls	r3, r3, #17
 396 0018 0B43     		orrs	r3, r1
 397 001a 1360     		str	r3, [r2]
 398 001c F7E7     		b	.L46
 399              	.L51:
 400 001e C046     		.align	2
 401              	.L50:
 402 0020 00100240 		.word	1073876992
 403 0024 FFFFFFFE 		.word	-16777217
 405              		.section	.text.RCC_HSI48Cmd,"ax",%progbits
 406              		.align	1
 407              		.global	RCC_HSI48Cmd
 408              		.syntax unified
 409              		.code	16
 410              		.thumb_func
 411              		.fpu softvfp
 413              	RCC_HSI48Cmd:
 414              		@ args = 0, pretend = 0, frame = 0
 415              		@ frame_needed = 0, uses_anonymous_args = 0
 416              		@ link register save eliminated.
 417 0000 0028     		cmp	r0, #0
 418 0002 05D1     		bne	.L55
 419 0004 064A     		ldr	r2, .L56
 420 0006 536B     		ldr	r3, [r2, #52]
 421 0008 0649     		ldr	r1, .L56+4
 422 000a 0B40     		ands	r3, r1
 423 000c 5363     		str	r3, [r2, #52]
 424              	.L52:
ARM GAS  /tmp/cc9kh5Dc.s 			page 8


 425              		@ sp needed
 426 000e 7047     		bx	lr
 427              	.L55:
 428 0010 034A     		ldr	r2, .L56
 429 0012 516B     		ldr	r1, [r2, #52]
 430 0014 8023     		movs	r3, #128
 431 0016 5B02     		lsls	r3, r3, #9
 432 0018 0B43     		orrs	r3, r1
 433 001a 5363     		str	r3, [r2, #52]
 434 001c F7E7     		b	.L52
 435              	.L57:
 436 001e C046     		.align	2
 437              	.L56:
 438 0020 00100240 		.word	1073876992
 439 0024 FFFFFEFF 		.word	-65537
 441              		.section	.text.RCC_PREDIV1Config,"ax",%progbits
 442              		.align	1
 443              		.global	RCC_PREDIV1Config
 444              		.syntax unified
 445              		.code	16
 446              		.thumb_func
 447              		.fpu softvfp
 449              	RCC_PREDIV1Config:
 450              		@ args = 0, pretend = 0, frame = 0
 451              		@ frame_needed = 0, uses_anonymous_args = 0
 452              		@ link register save eliminated.
 453 0000 034A     		ldr	r2, .L59
 454 0002 D36A     		ldr	r3, [r2, #44]
 455 0004 0F21     		movs	r1, #15
 456 0006 8B43     		bics	r3, r1
 457 0008 1843     		orrs	r0, r3
 458 000a D062     		str	r0, [r2, #44]
 459              		@ sp needed
 460 000c 7047     		bx	lr
 461              	.L60:
 462 000e C046     		.align	2
 463              	.L59:
 464 0010 00100240 		.word	1073876992
 466              		.section	.text.RCC_ClockSecuritySystemCmd,"ax",%progbits
 467              		.align	1
 468              		.global	RCC_ClockSecuritySystemCmd
 469              		.syntax unified
 470              		.code	16
 471              		.thumb_func
 472              		.fpu softvfp
 474              	RCC_ClockSecuritySystemCmd:
 475              		@ args = 0, pretend = 0, frame = 0
 476              		@ frame_needed = 0, uses_anonymous_args = 0
 477              		@ link register save eliminated.
 478 0000 0028     		cmp	r0, #0
 479 0002 05D1     		bne	.L64
 480 0004 064A     		ldr	r2, .L65
 481 0006 1368     		ldr	r3, [r2]
 482 0008 0649     		ldr	r1, .L65+4
 483 000a 0B40     		ands	r3, r1
 484 000c 1360     		str	r3, [r2]
 485              	.L61:
ARM GAS  /tmp/cc9kh5Dc.s 			page 9


 486              		@ sp needed
 487 000e 7047     		bx	lr
 488              	.L64:
 489 0010 034A     		ldr	r2, .L65
 490 0012 1168     		ldr	r1, [r2]
 491 0014 8023     		movs	r3, #128
 492 0016 1B03     		lsls	r3, r3, #12
 493 0018 0B43     		orrs	r3, r1
 494 001a 1360     		str	r3, [r2]
 495 001c F7E7     		b	.L61
 496              	.L66:
 497 001e C046     		.align	2
 498              	.L65:
 499 0020 00100240 		.word	1073876992
 500 0024 FFFFF7FF 		.word	-524289
 502              		.section	.text.RCC_MCOConfig,"ax",%progbits
 503              		.align	1
 504              		.global	RCC_MCOConfig
 505              		.syntax unified
 506              		.code	16
 507              		.thumb_func
 508              		.fpu softvfp
 510              	RCC_MCOConfig:
 511              		@ args = 0, pretend = 0, frame = 0
 512              		@ frame_needed = 0, uses_anonymous_args = 0
 513              		@ link register save eliminated.
 514 0000 044A     		ldr	r2, .L68
 515 0002 5368     		ldr	r3, [r2, #4]
 516 0004 1B02     		lsls	r3, r3, #8
 517 0006 1B0A     		lsrs	r3, r3, #8
 518 0008 0006     		lsls	r0, r0, #24
 519 000a 0843     		orrs	r0, r1
 520 000c 1843     		orrs	r0, r3
 521 000e 5060     		str	r0, [r2, #4]
 522              		@ sp needed
 523 0010 7047     		bx	lr
 524              	.L69:
 525 0012 C046     		.align	2
 526              	.L68:
 527 0014 00100240 		.word	1073876992
 529              		.section	.text.RCC_SYSCLKConfig,"ax",%progbits
 530              		.align	1
 531              		.global	RCC_SYSCLKConfig
 532              		.syntax unified
 533              		.code	16
 534              		.thumb_func
 535              		.fpu softvfp
 537              	RCC_SYSCLKConfig:
 538              		@ args = 0, pretend = 0, frame = 0
 539              		@ frame_needed = 0, uses_anonymous_args = 0
 540              		@ link register save eliminated.
 541 0000 034A     		ldr	r2, .L71
 542 0002 5368     		ldr	r3, [r2, #4]
 543 0004 0321     		movs	r1, #3
 544 0006 8B43     		bics	r3, r1
 545 0008 1843     		orrs	r0, r3
 546 000a 5060     		str	r0, [r2, #4]
ARM GAS  /tmp/cc9kh5Dc.s 			page 10


 547              		@ sp needed
 548 000c 7047     		bx	lr
 549              	.L72:
 550 000e C046     		.align	2
 551              	.L71:
 552 0010 00100240 		.word	1073876992
 554              		.section	.text.RCC_GetSYSCLKSource,"ax",%progbits
 555              		.align	1
 556              		.global	RCC_GetSYSCLKSource
 557              		.syntax unified
 558              		.code	16
 559              		.thumb_func
 560              		.fpu softvfp
 562              	RCC_GetSYSCLKSource:
 563              		@ args = 0, pretend = 0, frame = 0
 564              		@ frame_needed = 0, uses_anonymous_args = 0
 565              		@ link register save eliminated.
 566 0000 024B     		ldr	r3, .L74
 567 0002 5B68     		ldr	r3, [r3, #4]
 568 0004 0C20     		movs	r0, #12
 569 0006 1840     		ands	r0, r3
 570              		@ sp needed
 571 0008 7047     		bx	lr
 572              	.L75:
 573 000a C046     		.align	2
 574              	.L74:
 575 000c 00100240 		.word	1073876992
 577              		.section	.text.RCC_HCLKConfig,"ax",%progbits
 578              		.align	1
 579              		.global	RCC_HCLKConfig
 580              		.syntax unified
 581              		.code	16
 582              		.thumb_func
 583              		.fpu softvfp
 585              	RCC_HCLKConfig:
 586              		@ args = 0, pretend = 0, frame = 0
 587              		@ frame_needed = 0, uses_anonymous_args = 0
 588              		@ link register save eliminated.
 589 0000 034A     		ldr	r2, .L77
 590 0002 5368     		ldr	r3, [r2, #4]
 591 0004 F021     		movs	r1, #240
 592 0006 8B43     		bics	r3, r1
 593 0008 1843     		orrs	r0, r3
 594 000a 5060     		str	r0, [r2, #4]
 595              		@ sp needed
 596 000c 7047     		bx	lr
 597              	.L78:
 598 000e C046     		.align	2
 599              	.L77:
 600 0010 00100240 		.word	1073876992
 602              		.section	.text.RCC_PCLKConfig,"ax",%progbits
 603              		.align	1
 604              		.global	RCC_PCLKConfig
 605              		.syntax unified
 606              		.code	16
 607              		.thumb_func
 608              		.fpu softvfp
ARM GAS  /tmp/cc9kh5Dc.s 			page 11


 610              	RCC_PCLKConfig:
 611              		@ args = 0, pretend = 0, frame = 0
 612              		@ frame_needed = 0, uses_anonymous_args = 0
 613              		@ link register save eliminated.
 614 0000 034A     		ldr	r2, .L80
 615 0002 5368     		ldr	r3, [r2, #4]
 616 0004 0349     		ldr	r1, .L80+4
 617 0006 0B40     		ands	r3, r1
 618 0008 1843     		orrs	r0, r3
 619 000a 5060     		str	r0, [r2, #4]
 620              		@ sp needed
 621 000c 7047     		bx	lr
 622              	.L81:
 623 000e C046     		.align	2
 624              	.L80:
 625 0010 00100240 		.word	1073876992
 626 0014 FFF8FFFF 		.word	-1793
 628              		.section	.text.RCC_ADCCLKConfig,"ax",%progbits
 629              		.align	1
 630              		.global	RCC_ADCCLKConfig
 631              		.syntax unified
 632              		.code	16
 633              		.thumb_func
 634              		.fpu softvfp
 636              	RCC_ADCCLKConfig:
 637              		@ args = 0, pretend = 0, frame = 0
 638              		@ frame_needed = 0, uses_anonymous_args = 0
 639              		@ link register save eliminated.
 640 0000 094B     		ldr	r3, .L83
 641 0002 5A68     		ldr	r2, [r3, #4]
 642 0004 0949     		ldr	r1, .L83+4
 643 0006 0A40     		ands	r2, r1
 644 0008 5A60     		str	r2, [r3, #4]
 645 000a 5A68     		ldr	r2, [r3, #4]
 646 000c 0104     		lsls	r1, r0, #16
 647 000e 090C     		lsrs	r1, r1, #16
 648 0010 0A43     		orrs	r2, r1
 649 0012 5A60     		str	r2, [r3, #4]
 650 0014 1A6B     		ldr	r2, [r3, #48]
 651 0016 0649     		ldr	r1, .L83+8
 652 0018 0A40     		ands	r2, r1
 653 001a 1A63     		str	r2, [r3, #48]
 654 001c 1A6B     		ldr	r2, [r3, #48]
 655 001e 000C     		lsrs	r0, r0, #16
 656 0020 1043     		orrs	r0, r2
 657 0022 1863     		str	r0, [r3, #48]
 658              		@ sp needed
 659 0024 7047     		bx	lr
 660              	.L84:
 661 0026 C046     		.align	2
 662              	.L83:
 663 0028 00100240 		.word	1073876992
 664 002c FFBFFFFF 		.word	-16385
 665 0030 FFFEFFFF 		.word	-257
 667              		.section	.text.RCC_CECCLKConfig,"ax",%progbits
 668              		.align	1
 669              		.global	RCC_CECCLKConfig
ARM GAS  /tmp/cc9kh5Dc.s 			page 12


 670              		.syntax unified
 671              		.code	16
 672              		.thumb_func
 673              		.fpu softvfp
 675              	RCC_CECCLKConfig:
 676              		@ args = 0, pretend = 0, frame = 0
 677              		@ frame_needed = 0, uses_anonymous_args = 0
 678              		@ link register save eliminated.
 679 0000 044B     		ldr	r3, .L86
 680 0002 1A6B     		ldr	r2, [r3, #48]
 681 0004 4021     		movs	r1, #64
 682 0006 8A43     		bics	r2, r1
 683 0008 1A63     		str	r2, [r3, #48]
 684 000a 1A6B     		ldr	r2, [r3, #48]
 685 000c 1043     		orrs	r0, r2
 686 000e 1863     		str	r0, [r3, #48]
 687              		@ sp needed
 688 0010 7047     		bx	lr
 689              	.L87:
 690 0012 C046     		.align	2
 691              	.L86:
 692 0014 00100240 		.word	1073876992
 694              		.section	.text.RCC_I2CCLKConfig,"ax",%progbits
 695              		.align	1
 696              		.global	RCC_I2CCLKConfig
 697              		.syntax unified
 698              		.code	16
 699              		.thumb_func
 700              		.fpu softvfp
 702              	RCC_I2CCLKConfig:
 703              		@ args = 0, pretend = 0, frame = 0
 704              		@ frame_needed = 0, uses_anonymous_args = 0
 705              		@ link register save eliminated.
 706 0000 044B     		ldr	r3, .L89
 707 0002 1A6B     		ldr	r2, [r3, #48]
 708 0004 1021     		movs	r1, #16
 709 0006 8A43     		bics	r2, r1
 710 0008 1A63     		str	r2, [r3, #48]
 711 000a 1A6B     		ldr	r2, [r3, #48]
 712 000c 1043     		orrs	r0, r2
 713 000e 1863     		str	r0, [r3, #48]
 714              		@ sp needed
 715 0010 7047     		bx	lr
 716              	.L90:
 717 0012 C046     		.align	2
 718              	.L89:
 719 0014 00100240 		.word	1073876992
 721              		.section	.text.RCC_USARTCLKConfig,"ax",%progbits
 722              		.align	1
 723              		.global	RCC_USARTCLKConfig
 724              		.syntax unified
 725              		.code	16
 726              		.thumb_func
 727              		.fpu softvfp
 729              	RCC_USARTCLKConfig:
 730              		@ args = 0, pretend = 0, frame = 0
 731              		@ frame_needed = 0, uses_anonymous_args = 0
ARM GAS  /tmp/cc9kh5Dc.s 			page 13


 732              		@ link register save eliminated.
 733 0000 030F     		lsrs	r3, r0, #28
 734 0002 012B     		cmp	r3, #1
 735 0004 0BD0     		beq	.L95
 736 0006 022B     		cmp	r3, #2
 737 0008 0FD0     		beq	.L96
 738 000a 0B4A     		ldr	r2, .L97
 739 000c 136B     		ldr	r3, [r2, #48]
 740 000e 0B49     		ldr	r1, .L97+4
 741 0010 0B40     		ands	r3, r1
 742 0012 1363     		str	r3, [r2, #48]
 743              	.L93:
 744 0014 084A     		ldr	r2, .L97
 745 0016 136B     		ldr	r3, [r2, #48]
 746 0018 1843     		orrs	r0, r3
 747 001a 1063     		str	r0, [r2, #48]
 748              		@ sp needed
 749 001c 7047     		bx	lr
 750              	.L95:
 751 001e 064A     		ldr	r2, .L97
 752 0020 136B     		ldr	r3, [r2, #48]
 753 0022 0321     		movs	r1, #3
 754 0024 8B43     		bics	r3, r1
 755 0026 1363     		str	r3, [r2, #48]
 756 0028 F4E7     		b	.L93
 757              	.L96:
 758 002a 034A     		ldr	r2, .L97
 759 002c 136B     		ldr	r3, [r2, #48]
 760 002e 0449     		ldr	r1, .L97+8
 761 0030 0B40     		ands	r3, r1
 762 0032 1363     		str	r3, [r2, #48]
 763 0034 EEE7     		b	.L93
 764              	.L98:
 765 0036 C046     		.align	2
 766              	.L97:
 767 0038 00100240 		.word	1073876992
 768 003c FFFFF3FF 		.word	-786433
 769 0040 FFFFFCFF 		.word	-196609
 771              		.section	.text.RCC_USBCLKConfig,"ax",%progbits
 772              		.align	1
 773              		.global	RCC_USBCLKConfig
 774              		.syntax unified
 775              		.code	16
 776              		.thumb_func
 777              		.fpu softvfp
 779              	RCC_USBCLKConfig:
 780              		@ args = 0, pretend = 0, frame = 0
 781              		@ frame_needed = 0, uses_anonymous_args = 0
 782              		@ link register save eliminated.
 783 0000 044B     		ldr	r3, .L100
 784 0002 1A6B     		ldr	r2, [r3, #48]
 785 0004 8021     		movs	r1, #128
 786 0006 8A43     		bics	r2, r1
 787 0008 1A63     		str	r2, [r3, #48]
 788 000a 1A6B     		ldr	r2, [r3, #48]
 789 000c 1043     		orrs	r0, r2
 790 000e 1863     		str	r0, [r3, #48]
ARM GAS  /tmp/cc9kh5Dc.s 			page 14


 791              		@ sp needed
 792 0010 7047     		bx	lr
 793              	.L101:
 794 0012 C046     		.align	2
 795              	.L100:
 796 0014 00100240 		.word	1073876992
 798              		.global	__aeabi_uidiv
 799              		.section	.text.RCC_GetClocksFreq,"ax",%progbits
 800              		.align	1
 801              		.global	RCC_GetClocksFreq
 802              		.syntax unified
 803              		.code	16
 804              		.thumb_func
 805              		.fpu softvfp
 807              	RCC_GetClocksFreq:
 808              		@ args = 0, pretend = 0, frame = 0
 809              		@ frame_needed = 0, uses_anonymous_args = 0
 810 0000 F8B5     		push	{r3, r4, r5, r6, r7, lr}
 811 0002 0400     		movs	r4, r0
 812 0004 764B     		ldr	r3, .L141
 813 0006 5868     		ldr	r0, [r3, #4]
 814 0008 0C23     		movs	r3, #12
 815 000a 1840     		ands	r0, r3
 816 000c 0428     		cmp	r0, #4
 817 000e 4DD0     		beq	.L104
 818 0010 07D9     		bls	.L133
 819 0012 0828     		cmp	r0, #8
 820 0014 4ED0     		beq	.L107
 821 0016 0C28     		cmp	r0, #12
 822 0018 6AD1     		bne	.L103
 823 001a 724B     		ldr	r3, .L141+4
 824 001c 2360     		str	r3, [r4]
 825 001e 0020     		movs	r0, #0
 826 0020 03E0     		b	.L109
 827              	.L133:
 828 0022 0028     		cmp	r0, #0
 829 0024 64D1     		bne	.L103
 830 0026 704B     		ldr	r3, .L141+8
 831 0028 2360     		str	r3, [r4]
 832              	.L109:
 833 002a 6D4A     		ldr	r2, .L141
 834 002c 5168     		ldr	r1, [r2, #4]
 835 002e 0909     		lsrs	r1, r1, #4
 836 0030 0F23     		movs	r3, #15
 837 0032 0B40     		ands	r3, r1
 838 0034 6D4F     		ldr	r7, .L141+12
 839 0036 FB5C     		ldrb	r3, [r7, r3]
 840 0038 DBB2     		uxtb	r3, r3
 841 003a 2668     		ldr	r6, [r4]
 842 003c 3100     		movs	r1, r6
 843 003e D940     		lsrs	r1, r1, r3
 844 0040 0B00     		movs	r3, r1
 845 0042 6160     		str	r1, [r4, #4]
 846 0044 5568     		ldr	r5, [r2, #4]
 847 0046 2D0A     		lsrs	r5, r5, #8
 848 0048 0721     		movs	r1, #7
 849 004a 2940     		ands	r1, r5
ARM GAS  /tmp/cc9kh5Dc.s 			page 15


 850 004c 795C     		ldrb	r1, [r7, r1]
 851 004e C9B2     		uxtb	r1, r1
 852 0050 CB40     		lsrs	r3, r3, r1
 853 0052 A360     		str	r3, [r4, #8]
 854 0054 126B     		ldr	r2, [r2, #48]
 855 0056 D205     		lsls	r2, r2, #23
 856 0058 4ED4     		bmi	.L112
 857 005a 654A     		ldr	r2, .L141+16
 858 005c E260     		str	r2, [r4, #12]
 859              	.L113:
 860 005e 604A     		ldr	r2, .L141
 861 0060 126B     		ldr	r2, [r2, #48]
 862 0062 5206     		lsls	r2, r2, #25
 863 0064 52D4     		bmi	.L115
 864 0066 634A     		ldr	r2, .L141+20
 865 0068 2261     		str	r2, [r4, #16]
 866              	.L116:
 867 006a 5D4A     		ldr	r2, .L141
 868 006c 126B     		ldr	r2, [r2, #48]
 869 006e D206     		lsls	r2, r2, #27
 870 0070 50D4     		bmi	.L117
 871 0072 5D4A     		ldr	r2, .L141+8
 872 0074 6261     		str	r2, [r4, #20]
 873              	.L118:
 874 0076 5A4A     		ldr	r2, .L141
 875 0078 126B     		ldr	r2, [r2, #48]
 876 007a 9207     		lsls	r2, r2, #30
 877 007c 4CD1     		bne	.L119
 878 007e A361     		str	r3, [r4, #24]
 879              	.L120:
 880 0080 574A     		ldr	r2, .L141
 881 0082 116B     		ldr	r1, [r2, #48]
 882 0084 C022     		movs	r2, #192
 883 0086 9202     		lsls	r2, r2, #10
 884 0088 1142     		tst	r1, r2
 885 008a 60D1     		bne	.L123
 886 008c E361     		str	r3, [r4, #28]
 887              	.L124:
 888 008e 544A     		ldr	r2, .L141
 889 0090 116B     		ldr	r1, [r2, #48]
 890 0092 C022     		movs	r2, #192
 891 0094 1203     		lsls	r2, r2, #12
 892 0096 1142     		tst	r1, r2
 893 0098 00D0     		beq	.LCB846
 894 009a 7BE0     		b	.L127	@long jump
 895              	.LCB846:
 896 009c 2362     		str	r3, [r4, #32]
 897              	.L128:
 898 009e 504B     		ldr	r3, .L141
 899 00a0 1B6B     		ldr	r3, [r3, #48]
 900 00a2 1B06     		lsls	r3, r3, #24
 901 00a4 00D4     		bmi	.LCB855
 902 00a6 98E0     		b	.L134	@long jump
 903              	.LCB855:
 904 00a8 6062     		str	r0, [r4, #36]
 905              	.L102:
 906              		@ sp needed
ARM GAS  /tmp/cc9kh5Dc.s 			page 16


 907 00aa F8BD     		pop	{r3, r4, r5, r6, r7, pc}
 908              	.L104:
 909 00ac 4E4B     		ldr	r3, .L141+8
 910 00ae 2360     		str	r3, [r4]
 911 00b0 0020     		movs	r0, #0
 912 00b2 BAE7     		b	.L109
 913              	.L107:
 914 00b4 4A4B     		ldr	r3, .L141
 915 00b6 5D68     		ldr	r5, [r3, #4]
 916 00b8 5A68     		ldr	r2, [r3, #4]
 917 00ba C023     		movs	r3, #192
 918 00bc 5B02     		lsls	r3, r3, #9
 919 00be AD0C     		lsrs	r5, r5, #18
 920 00c0 0F20     		movs	r0, #15
 921 00c2 0540     		ands	r5, r0
 922 00c4 0235     		adds	r5, r5, #2
 923 00c6 1A42     		tst	r2, r3
 924 00c8 08D1     		bne	.L110
 925 00ca 6B01     		lsls	r3, r5, #5
 926 00cc 5B1B     		subs	r3, r3, r5
 927 00ce 9801     		lsls	r0, r3, #6
 928 00d0 C01A     		subs	r0, r0, r3
 929 00d2 C000     		lsls	r0, r0, #3
 930 00d4 4519     		adds	r5, r0, r5
 931 00d6 2802     		lsls	r0, r5, #8
 932              	.L111:
 933 00d8 2060     		str	r0, [r4]
 934 00da A6E7     		b	.L109
 935              	.L110:
 936 00dc 404B     		ldr	r3, .L141
 937 00de DB6A     		ldr	r3, [r3, #44]
 938 00e0 0F21     		movs	r1, #15
 939 00e2 1940     		ands	r1, r3
 940 00e4 0131     		adds	r1, r1, #1
 941 00e6 4048     		ldr	r0, .L141+8
 942 00e8 FFF7FEFF 		bl	__aeabi_uidiv
 943 00ec 6843     		muls	r0, r5
 944 00ee F3E7     		b	.L111
 945              	.L103:
 946 00f0 3D4B     		ldr	r3, .L141+8
 947 00f2 2360     		str	r3, [r4]
 948 00f4 0020     		movs	r0, #0
 949 00f6 98E7     		b	.L109
 950              	.L112:
 951 00f8 394A     		ldr	r2, .L141
 952 00fa 5268     		ldr	r2, [r2, #4]
 953 00fc 5204     		lsls	r2, r2, #17
 954 00fe 02D4     		bmi	.L114
 955 0100 5A08     		lsrs	r2, r3, #1
 956 0102 E260     		str	r2, [r4, #12]
 957 0104 ABE7     		b	.L113
 958              	.L114:
 959 0106 9A08     		lsrs	r2, r3, #2
 960 0108 E260     		str	r2, [r4, #12]
 961 010a A8E7     		b	.L113
 962              	.L115:
 963 010c 8022     		movs	r2, #128
ARM GAS  /tmp/cc9kh5Dc.s 			page 17


 964 010e 1202     		lsls	r2, r2, #8
 965 0110 2261     		str	r2, [r4, #16]
 966 0112 AAE7     		b	.L116
 967              	.L117:
 968 0114 6661     		str	r6, [r4, #20]
 969 0116 AEE7     		b	.L118
 970              	.L119:
 971 0118 314A     		ldr	r2, .L141
 972 011a 116B     		ldr	r1, [r2, #48]
 973 011c 0322     		movs	r2, #3
 974 011e 0A40     		ands	r2, r1
 975 0120 012A     		cmp	r2, #1
 976 0122 0ED0     		beq	.L135
 977 0124 2E4A     		ldr	r2, .L141
 978 0126 116B     		ldr	r1, [r2, #48]
 979 0128 0322     		movs	r2, #3
 980 012a 0A40     		ands	r2, r1
 981 012c 022A     		cmp	r2, #2
 982 012e 0AD0     		beq	.L136
 983 0130 2B4A     		ldr	r2, .L141
 984 0132 116B     		ldr	r1, [r2, #48]
 985 0134 0322     		movs	r2, #3
 986 0136 0A40     		ands	r2, r1
 987 0138 032A     		cmp	r2, #3
 988 013a A1D1     		bne	.L120
 989 013c 2A4A     		ldr	r2, .L141+8
 990 013e A261     		str	r2, [r4, #24]
 991 0140 9EE7     		b	.L120
 992              	.L135:
 993 0142 A661     		str	r6, [r4, #24]
 994 0144 9CE7     		b	.L120
 995              	.L136:
 996 0146 8022     		movs	r2, #128
 997 0148 1202     		lsls	r2, r2, #8
 998 014a A261     		str	r2, [r4, #24]
 999 014c 98E7     		b	.L120
 1000              	.L123:
 1001 014e 244A     		ldr	r2, .L141
 1002 0150 126B     		ldr	r2, [r2, #48]
 1003 0152 C021     		movs	r1, #192
 1004 0154 8902     		lsls	r1, r1, #10
 1005 0156 0A40     		ands	r2, r1
 1006 0158 8021     		movs	r1, #128
 1007 015a 4902     		lsls	r1, r1, #9
 1008 015c 8A42     		cmp	r2, r1
 1009 015e 13D0     		beq	.L137
 1010 0160 1F4A     		ldr	r2, .L141
 1011 0162 126B     		ldr	r2, [r2, #48]
 1012 0164 C021     		movs	r1, #192
 1013 0166 8902     		lsls	r1, r1, #10
 1014 0168 0A40     		ands	r2, r1
 1015 016a 8021     		movs	r1, #128
 1016 016c 8902     		lsls	r1, r1, #10
 1017 016e 8A42     		cmp	r2, r1
 1018 0170 0CD0     		beq	.L138
 1019 0172 1B4A     		ldr	r2, .L141
 1020 0174 126B     		ldr	r2, [r2, #48]
ARM GAS  /tmp/cc9kh5Dc.s 			page 18


 1021 0176 C021     		movs	r1, #192
 1022 0178 8902     		lsls	r1, r1, #10
 1023 017a 0A40     		ands	r2, r1
 1024 017c 8A42     		cmp	r2, r1
 1025 017e 00D0     		beq	.LCB1011
 1026 0180 85E7     		b	.L124	@long jump
 1027              	.LCB1011:
 1028 0182 194A     		ldr	r2, .L141+8
 1029 0184 E261     		str	r2, [r4, #28]
 1030 0186 82E7     		b	.L124
 1031              	.L137:
 1032 0188 E661     		str	r6, [r4, #28]
 1033 018a 80E7     		b	.L124
 1034              	.L138:
 1035 018c 8022     		movs	r2, #128
 1036 018e 1202     		lsls	r2, r2, #8
 1037 0190 E261     		str	r2, [r4, #28]
 1038 0192 7CE7     		b	.L124
 1039              	.L127:
 1040 0194 124B     		ldr	r3, .L141
 1041 0196 1B6B     		ldr	r3, [r3, #48]
 1042 0198 C022     		movs	r2, #192
 1043 019a 1203     		lsls	r2, r2, #12
 1044 019c 1340     		ands	r3, r2
 1045 019e 8022     		movs	r2, #128
 1046 01a0 D202     		lsls	r2, r2, #11
 1047 01a2 9342     		cmp	r3, r2
 1048 01a4 13D0     		beq	.L139
 1049 01a6 0E4B     		ldr	r3, .L141
 1050 01a8 1B6B     		ldr	r3, [r3, #48]
 1051 01aa C022     		movs	r2, #192
 1052 01ac 1203     		lsls	r2, r2, #12
 1053 01ae 1340     		ands	r3, r2
 1054 01b0 8022     		movs	r2, #128
 1055 01b2 1203     		lsls	r2, r2, #12
 1056 01b4 9342     		cmp	r3, r2
 1057 01b6 0CD0     		beq	.L140
 1058 01b8 094B     		ldr	r3, .L141
 1059 01ba 1B6B     		ldr	r3, [r3, #48]
 1060 01bc C022     		movs	r2, #192
 1061 01be 1203     		lsls	r2, r2, #12
 1062 01c0 1340     		ands	r3, r2
 1063 01c2 9342     		cmp	r3, r2
 1064 01c4 00D0     		beq	.LCB1054
 1065 01c6 6AE7     		b	.L128	@long jump
 1066              	.LCB1054:
 1067 01c8 074B     		ldr	r3, .L141+8
 1068 01ca 2362     		str	r3, [r4, #32]
 1069 01cc 67E7     		b	.L128
 1070              	.L139:
 1071 01ce 2662     		str	r6, [r4, #32]
 1072 01d0 65E7     		b	.L128
 1073              	.L140:
 1074 01d2 8023     		movs	r3, #128
 1075 01d4 1B02     		lsls	r3, r3, #8
 1076 01d6 2362     		str	r3, [r4, #32]
 1077 01d8 61E7     		b	.L128
ARM GAS  /tmp/cc9kh5Dc.s 			page 19


 1078              	.L134:
 1079 01da 024B     		ldr	r3, .L141+4
 1080 01dc 6362     		str	r3, [r4, #36]
 1081 01de 64E7     		b	.L102
 1082              	.L142:
 1083              		.align	2
 1084              	.L141:
 1085 01e0 00100240 		.word	1073876992
 1086 01e4 006CDC02 		.word	48000000
 1087 01e8 00127A00 		.word	8000000
 1088 01ec 00000000 		.word	.LANCHOR0
 1089 01f0 809FD500 		.word	14000000
 1090 01f4 12800000 		.word	32786
 1092              		.section	.text.RCC_RTCCLKConfig,"ax",%progbits
 1093              		.align	1
 1094              		.global	RCC_RTCCLKConfig
 1095              		.syntax unified
 1096              		.code	16
 1097              		.thumb_func
 1098              		.fpu softvfp
 1100              	RCC_RTCCLKConfig:
 1101              		@ args = 0, pretend = 0, frame = 0
 1102              		@ frame_needed = 0, uses_anonymous_args = 0
 1103              		@ link register save eliminated.
 1104 0000 024A     		ldr	r2, .L144
 1105 0002 136A     		ldr	r3, [r2, #32]
 1106 0004 1843     		orrs	r0, r3
 1107 0006 1062     		str	r0, [r2, #32]
 1108              		@ sp needed
 1109 0008 7047     		bx	lr
 1110              	.L145:
 1111 000a C046     		.align	2
 1112              	.L144:
 1113 000c 00100240 		.word	1073876992
 1115              		.section	.text.RCC_RTCCLKCmd,"ax",%progbits
 1116              		.align	1
 1117              		.global	RCC_RTCCLKCmd
 1118              		.syntax unified
 1119              		.code	16
 1120              		.thumb_func
 1121              		.fpu softvfp
 1123              	RCC_RTCCLKCmd:
 1124              		@ args = 0, pretend = 0, frame = 0
 1125              		@ frame_needed = 0, uses_anonymous_args = 0
 1126              		@ link register save eliminated.
 1127 0000 0028     		cmp	r0, #0
 1128 0002 05D1     		bne	.L149
 1129 0004 064A     		ldr	r2, .L150
 1130 0006 136A     		ldr	r3, [r2, #32]
 1131 0008 0649     		ldr	r1, .L150+4
 1132 000a 0B40     		ands	r3, r1
 1133 000c 1362     		str	r3, [r2, #32]
 1134              	.L146:
 1135              		@ sp needed
 1136 000e 7047     		bx	lr
 1137              	.L149:
 1138 0010 034A     		ldr	r2, .L150
ARM GAS  /tmp/cc9kh5Dc.s 			page 20


 1139 0012 116A     		ldr	r1, [r2, #32]
 1140 0014 8023     		movs	r3, #128
 1141 0016 1B02     		lsls	r3, r3, #8
 1142 0018 0B43     		orrs	r3, r1
 1143 001a 1362     		str	r3, [r2, #32]
 1144 001c F7E7     		b	.L146
 1145              	.L151:
 1146 001e C046     		.align	2
 1147              	.L150:
 1148 0020 00100240 		.word	1073876992
 1149 0024 FF7FFFFF 		.word	-32769
 1151              		.section	.text.RCC_BackupResetCmd,"ax",%progbits
 1152              		.align	1
 1153              		.global	RCC_BackupResetCmd
 1154              		.syntax unified
 1155              		.code	16
 1156              		.thumb_func
 1157              		.fpu softvfp
 1159              	RCC_BackupResetCmd:
 1160              		@ args = 0, pretend = 0, frame = 0
 1161              		@ frame_needed = 0, uses_anonymous_args = 0
 1162              		@ link register save eliminated.
 1163 0000 0028     		cmp	r0, #0
 1164 0002 05D1     		bne	.L155
 1165 0004 064A     		ldr	r2, .L156
 1166 0006 136A     		ldr	r3, [r2, #32]
 1167 0008 0649     		ldr	r1, .L156+4
 1168 000a 0B40     		ands	r3, r1
 1169 000c 1362     		str	r3, [r2, #32]
 1170              	.L152:
 1171              		@ sp needed
 1172 000e 7047     		bx	lr
 1173              	.L155:
 1174 0010 034A     		ldr	r2, .L156
 1175 0012 116A     		ldr	r1, [r2, #32]
 1176 0014 8023     		movs	r3, #128
 1177 0016 5B02     		lsls	r3, r3, #9
 1178 0018 0B43     		orrs	r3, r1
 1179 001a 1362     		str	r3, [r2, #32]
 1180 001c F7E7     		b	.L152
 1181              	.L157:
 1182 001e C046     		.align	2
 1183              	.L156:
 1184 0020 00100240 		.word	1073876992
 1185 0024 FFFFFEFF 		.word	-65537
 1187              		.section	.text.RCC_AHBPeriphClockCmd,"ax",%progbits
 1188              		.align	1
 1189              		.global	RCC_AHBPeriphClockCmd
 1190              		.syntax unified
 1191              		.code	16
 1192              		.thumb_func
 1193              		.fpu softvfp
 1195              	RCC_AHBPeriphClockCmd:
 1196              		@ args = 0, pretend = 0, frame = 0
 1197              		@ frame_needed = 0, uses_anonymous_args = 0
 1198              		@ link register save eliminated.
 1199 0000 0029     		cmp	r1, #0
ARM GAS  /tmp/cc9kh5Dc.s 			page 21


 1200 0002 04D1     		bne	.L161
 1201 0004 044A     		ldr	r2, .L162
 1202 0006 5369     		ldr	r3, [r2, #20]
 1203 0008 8343     		bics	r3, r0
 1204 000a 5361     		str	r3, [r2, #20]
 1205              	.L158:
 1206              		@ sp needed
 1207 000c 7047     		bx	lr
 1208              	.L161:
 1209 000e 024A     		ldr	r2, .L162
 1210 0010 5369     		ldr	r3, [r2, #20]
 1211 0012 1843     		orrs	r0, r3
 1212 0014 5061     		str	r0, [r2, #20]
 1213 0016 F9E7     		b	.L158
 1214              	.L163:
 1215              		.align	2
 1216              	.L162:
 1217 0018 00100240 		.word	1073876992
 1219              		.section	.text.RCC_APB2PeriphClockCmd,"ax",%progbits
 1220              		.align	1
 1221              		.global	RCC_APB2PeriphClockCmd
 1222              		.syntax unified
 1223              		.code	16
 1224              		.thumb_func
 1225              		.fpu softvfp
 1227              	RCC_APB2PeriphClockCmd:
 1228              		@ args = 0, pretend = 0, frame = 0
 1229              		@ frame_needed = 0, uses_anonymous_args = 0
 1230              		@ link register save eliminated.
 1231 0000 0029     		cmp	r1, #0
 1232 0002 04D1     		bne	.L167
 1233 0004 044A     		ldr	r2, .L168
 1234 0006 9369     		ldr	r3, [r2, #24]
 1235 0008 8343     		bics	r3, r0
 1236 000a 9361     		str	r3, [r2, #24]
 1237              	.L164:
 1238              		@ sp needed
 1239 000c 7047     		bx	lr
 1240              	.L167:
 1241 000e 024A     		ldr	r2, .L168
 1242 0010 9369     		ldr	r3, [r2, #24]
 1243 0012 1843     		orrs	r0, r3
 1244 0014 9061     		str	r0, [r2, #24]
 1245 0016 F9E7     		b	.L164
 1246              	.L169:
 1247              		.align	2
 1248              	.L168:
 1249 0018 00100240 		.word	1073876992
 1251              		.section	.text.RCC_APB1PeriphClockCmd,"ax",%progbits
 1252              		.align	1
 1253              		.global	RCC_APB1PeriphClockCmd
 1254              		.syntax unified
 1255              		.code	16
 1256              		.thumb_func
 1257              		.fpu softvfp
 1259              	RCC_APB1PeriphClockCmd:
 1260              		@ args = 0, pretend = 0, frame = 0
ARM GAS  /tmp/cc9kh5Dc.s 			page 22


 1261              		@ frame_needed = 0, uses_anonymous_args = 0
 1262              		@ link register save eliminated.
 1263 0000 0029     		cmp	r1, #0
 1264 0002 04D1     		bne	.L173
 1265 0004 044A     		ldr	r2, .L174
 1266 0006 D369     		ldr	r3, [r2, #28]
 1267 0008 8343     		bics	r3, r0
 1268 000a D361     		str	r3, [r2, #28]
 1269              	.L170:
 1270              		@ sp needed
 1271 000c 7047     		bx	lr
 1272              	.L173:
 1273 000e 024A     		ldr	r2, .L174
 1274 0010 D369     		ldr	r3, [r2, #28]
 1275 0012 1843     		orrs	r0, r3
 1276 0014 D061     		str	r0, [r2, #28]
 1277 0016 F9E7     		b	.L170
 1278              	.L175:
 1279              		.align	2
 1280              	.L174:
 1281 0018 00100240 		.word	1073876992
 1283              		.section	.text.RCC_AHBPeriphResetCmd,"ax",%progbits
 1284              		.align	1
 1285              		.global	RCC_AHBPeriphResetCmd
 1286              		.syntax unified
 1287              		.code	16
 1288              		.thumb_func
 1289              		.fpu softvfp
 1291              	RCC_AHBPeriphResetCmd:
 1292              		@ args = 0, pretend = 0, frame = 0
 1293              		@ frame_needed = 0, uses_anonymous_args = 0
 1294              		@ link register save eliminated.
 1295 0000 0029     		cmp	r1, #0
 1296 0002 04D1     		bne	.L179
 1297 0004 044A     		ldr	r2, .L180
 1298 0006 936A     		ldr	r3, [r2, #40]
 1299 0008 8343     		bics	r3, r0
 1300 000a 9362     		str	r3, [r2, #40]
 1301              	.L176:
 1302              		@ sp needed
 1303 000c 7047     		bx	lr
 1304              	.L179:
 1305 000e 024A     		ldr	r2, .L180
 1306 0010 936A     		ldr	r3, [r2, #40]
 1307 0012 1843     		orrs	r0, r3
 1308 0014 9062     		str	r0, [r2, #40]
 1309 0016 F9E7     		b	.L176
 1310              	.L181:
 1311              		.align	2
 1312              	.L180:
 1313 0018 00100240 		.word	1073876992
 1315              		.section	.text.RCC_APB2PeriphResetCmd,"ax",%progbits
 1316              		.align	1
 1317              		.global	RCC_APB2PeriphResetCmd
 1318              		.syntax unified
 1319              		.code	16
 1320              		.thumb_func
ARM GAS  /tmp/cc9kh5Dc.s 			page 23


 1321              		.fpu softvfp
 1323              	RCC_APB2PeriphResetCmd:
 1324              		@ args = 0, pretend = 0, frame = 0
 1325              		@ frame_needed = 0, uses_anonymous_args = 0
 1326              		@ link register save eliminated.
 1327 0000 0029     		cmp	r1, #0
 1328 0002 04D1     		bne	.L185
 1329 0004 044A     		ldr	r2, .L186
 1330 0006 D368     		ldr	r3, [r2, #12]
 1331 0008 8343     		bics	r3, r0
 1332 000a D360     		str	r3, [r2, #12]
 1333              	.L182:
 1334              		@ sp needed
 1335 000c 7047     		bx	lr
 1336              	.L185:
 1337 000e 024A     		ldr	r2, .L186
 1338 0010 D368     		ldr	r3, [r2, #12]
 1339 0012 1843     		orrs	r0, r3
 1340 0014 D060     		str	r0, [r2, #12]
 1341 0016 F9E7     		b	.L182
 1342              	.L187:
 1343              		.align	2
 1344              	.L186:
 1345 0018 00100240 		.word	1073876992
 1347              		.section	.text.RCC_APB1PeriphResetCmd,"ax",%progbits
 1348              		.align	1
 1349              		.global	RCC_APB1PeriphResetCmd
 1350              		.syntax unified
 1351              		.code	16
 1352              		.thumb_func
 1353              		.fpu softvfp
 1355              	RCC_APB1PeriphResetCmd:
 1356              		@ args = 0, pretend = 0, frame = 0
 1357              		@ frame_needed = 0, uses_anonymous_args = 0
 1358              		@ link register save eliminated.
 1359 0000 0029     		cmp	r1, #0
 1360 0002 04D1     		bne	.L191
 1361 0004 044A     		ldr	r2, .L192
 1362 0006 1369     		ldr	r3, [r2, #16]
 1363 0008 8343     		bics	r3, r0
 1364 000a 1361     		str	r3, [r2, #16]
 1365              	.L188:
 1366              		@ sp needed
 1367 000c 7047     		bx	lr
 1368              	.L191:
 1369 000e 024A     		ldr	r2, .L192
 1370 0010 1369     		ldr	r3, [r2, #16]
 1371 0012 1843     		orrs	r0, r3
 1372 0014 1061     		str	r0, [r2, #16]
 1373 0016 F9E7     		b	.L188
 1374              	.L193:
 1375              		.align	2
 1376              	.L192:
 1377 0018 00100240 		.word	1073876992
 1379              		.section	.text.RCC_ITConfig,"ax",%progbits
 1380              		.align	1
 1381              		.global	RCC_ITConfig
ARM GAS  /tmp/cc9kh5Dc.s 			page 24


 1382              		.syntax unified
 1383              		.code	16
 1384              		.thumb_func
 1385              		.fpu softvfp
 1387              	RCC_ITConfig:
 1388              		@ args = 0, pretend = 0, frame = 0
 1389              		@ frame_needed = 0, uses_anonymous_args = 0
 1390              		@ link register save eliminated.
 1391 0000 0029     		cmp	r1, #0
 1392 0002 04D1     		bne	.L197
 1393 0004 044A     		ldr	r2, .L198
 1394 0006 1378     		ldrb	r3, [r2]
 1395 0008 8343     		bics	r3, r0
 1396 000a 1370     		strb	r3, [r2]
 1397              	.L194:
 1398              		@ sp needed
 1399 000c 7047     		bx	lr
 1400              	.L197:
 1401 000e 024A     		ldr	r2, .L198
 1402 0010 1378     		ldrb	r3, [r2]
 1403 0012 1843     		orrs	r0, r3
 1404 0014 1070     		strb	r0, [r2]
 1405 0016 F9E7     		b	.L194
 1406              	.L199:
 1407              		.align	2
 1408              	.L198:
 1409 0018 09100240 		.word	1073877001
 1411              		.section	.text.RCC_GetFlagStatus,"ax",%progbits
 1412              		.align	1
 1413              		.global	RCC_GetFlagStatus
 1414              		.syntax unified
 1415              		.code	16
 1416              		.thumb_func
 1417              		.fpu softvfp
 1419              	RCC_GetFlagStatus:
 1420              		@ args = 0, pretend = 0, frame = 0
 1421              		@ frame_needed = 0, uses_anonymous_args = 0
 1422              		@ link register save eliminated.
 1423 0000 4309     		lsrs	r3, r0, #5
 1424 0002 08D1     		bne	.L201
 1425 0004 0B4B     		ldr	r3, .L210
 1426 0006 1A68     		ldr	r2, [r3]
 1427              	.L202:
 1428 0008 1F23     		movs	r3, #31
 1429 000a 1840     		ands	r0, r3
 1430 000c C240     		lsrs	r2, r2, r0
 1431 000e D307     		lsls	r3, r2, #31
 1432 0010 0ED4     		bmi	.L207
 1433 0012 0020     		movs	r0, #0
 1434              	.L205:
 1435              		@ sp needed
 1436 0014 7047     		bx	lr
 1437              	.L201:
 1438 0016 012B     		cmp	r3, #1
 1439 0018 04D0     		beq	.L208
 1440 001a 022B     		cmp	r3, #2
 1441 001c 05D0     		beq	.L209
ARM GAS  /tmp/cc9kh5Dc.s 			page 25


 1442 001e 054B     		ldr	r3, .L210
 1443 0020 5A6B     		ldr	r2, [r3, #52]
 1444 0022 F1E7     		b	.L202
 1445              	.L208:
 1446 0024 034B     		ldr	r3, .L210
 1447 0026 1A6A     		ldr	r2, [r3, #32]
 1448 0028 EEE7     		b	.L202
 1449              	.L209:
 1450 002a 024B     		ldr	r3, .L210
 1451 002c 5A6A     		ldr	r2, [r3, #36]
 1452 002e EBE7     		b	.L202
 1453              	.L207:
 1454 0030 0120     		movs	r0, #1
 1455 0032 EFE7     		b	.L205
 1456              	.L211:
 1457              		.align	2
 1458              	.L210:
 1459 0034 00100240 		.word	1073876992
 1461              		.section	.text.RCC_WaitForHSEStartUp,"ax",%progbits
 1462              		.align	1
 1463              		.global	RCC_WaitForHSEStartUp
 1464              		.syntax unified
 1465              		.code	16
 1466              		.thumb_func
 1467              		.fpu softvfp
 1469              	RCC_WaitForHSEStartUp:
 1470              		@ args = 0, pretend = 0, frame = 8
 1471              		@ frame_needed = 0, uses_anonymous_args = 0
 1472 0000 00B5     		push	{lr}
 1473 0002 83B0     		sub	sp, sp, #12
 1474 0004 0023     		movs	r3, #0
 1475 0006 0193     		str	r3, [sp, #4]
 1476              	.L214:
 1477 0008 1120     		movs	r0, #17
 1478 000a FFF7FEFF 		bl	RCC_GetFlagStatus
 1479 000e 019B     		ldr	r3, [sp, #4]
 1480 0010 0133     		adds	r3, r3, #1
 1481 0012 0193     		str	r3, [sp, #4]
 1482 0014 019A     		ldr	r2, [sp, #4]
 1483 0016 A023     		movs	r3, #160
 1484 0018 DB01     		lsls	r3, r3, #7
 1485 001a 9A42     		cmp	r2, r3
 1486 001c 01D0     		beq	.L213
 1487 001e 0028     		cmp	r0, #0
 1488 0020 F2D0     		beq	.L214
 1489              	.L213:
 1490 0022 1120     		movs	r0, #17
 1491 0024 FFF7FEFF 		bl	RCC_GetFlagStatus
 1492 0028 0028     		cmp	r0, #0
 1493 002a 02D1     		bne	.L217
 1494 002c 0020     		movs	r0, #0
 1495              	.L215:
 1496 002e 03B0     		add	sp, sp, #12
 1497              		@ sp needed
 1498 0030 00BD     		pop	{pc}
 1499              	.L217:
 1500 0032 0120     		movs	r0, #1
ARM GAS  /tmp/cc9kh5Dc.s 			page 26


 1501 0034 FBE7     		b	.L215
 1503              		.section	.text.RCC_ClearFlag,"ax",%progbits
 1504              		.align	1
 1505              		.global	RCC_ClearFlag
 1506              		.syntax unified
 1507              		.code	16
 1508              		.thumb_func
 1509              		.fpu softvfp
 1511              	RCC_ClearFlag:
 1512              		@ args = 0, pretend = 0, frame = 0
 1513              		@ frame_needed = 0, uses_anonymous_args = 0
 1514              		@ link register save eliminated.
 1515 0000 034A     		ldr	r2, .L219
 1516 0002 516A     		ldr	r1, [r2, #36]
 1517 0004 8023     		movs	r3, #128
 1518 0006 5B04     		lsls	r3, r3, #17
 1519 0008 0B43     		orrs	r3, r1
 1520 000a 5362     		str	r3, [r2, #36]
 1521              		@ sp needed
 1522 000c 7047     		bx	lr
 1523              	.L220:
 1524 000e C046     		.align	2
 1525              	.L219:
 1526 0010 00100240 		.word	1073876992
 1528              		.section	.text.RCC_GetITStatus,"ax",%progbits
 1529              		.align	1
 1530              		.global	RCC_GetITStatus
 1531              		.syntax unified
 1532              		.code	16
 1533              		.thumb_func
 1534              		.fpu softvfp
 1536              	RCC_GetITStatus:
 1537              		@ args = 0, pretend = 0, frame = 0
 1538              		@ frame_needed = 0, uses_anonymous_args = 0
 1539              		@ link register save eliminated.
 1540 0000 034B     		ldr	r3, .L225
 1541 0002 9B68     		ldr	r3, [r3, #8]
 1542 0004 0342     		tst	r3, r0
 1543 0006 01D1     		bne	.L224
 1544 0008 0020     		movs	r0, #0
 1545              	.L222:
 1546              		@ sp needed
 1547 000a 7047     		bx	lr
 1548              	.L224:
 1549 000c 0120     		movs	r0, #1
 1550 000e FCE7     		b	.L222
 1551              	.L226:
 1552              		.align	2
 1553              	.L225:
 1554 0010 00100240 		.word	1073876992
 1556              		.section	.text.RCC_ClearITPendingBit,"ax",%progbits
 1557              		.align	1
 1558              		.global	RCC_ClearITPendingBit
 1559              		.syntax unified
 1560              		.code	16
 1561              		.thumb_func
 1562              		.fpu softvfp
ARM GAS  /tmp/cc9kh5Dc.s 			page 27


 1564              	RCC_ClearITPendingBit:
 1565              		@ args = 0, pretend = 0, frame = 0
 1566              		@ frame_needed = 0, uses_anonymous_args = 0
 1567              		@ link register save eliminated.
 1568 0000 014B     		ldr	r3, .L228
 1569 0002 1870     		strb	r0, [r3]
 1570              		@ sp needed
 1571 0004 7047     		bx	lr
 1572              	.L229:
 1573 0006 C046     		.align	2
 1574              	.L228:
 1575 0008 0A100240 		.word	1073877002
 1577              		.section	.data.APBAHBPrescTable,"aw",%progbits
 1578              		.align	2
 1579              		.set	.LANCHOR0,. + 0
 1582              	APBAHBPrescTable:
 1583 0000 00       		.byte	0
 1584 0001 00       		.byte	0
 1585 0002 00       		.byte	0
 1586 0003 00       		.byte	0
 1587 0004 01       		.byte	1
 1588 0005 02       		.byte	2
 1589 0006 03       		.byte	3
 1590 0007 04       		.byte	4
 1591 0008 01       		.byte	1
 1592 0009 02       		.byte	2
 1593 000a 03       		.byte	3
 1594 000b 04       		.byte	4
 1595 000c 06       		.byte	6
 1596 000d 07       		.byte	7
 1597 000e 08       		.byte	8
 1598 000f 09       		.byte	9
 1599              		.ident	"GCC: (GNU Tools for Arm Embedded Processors 7-2018-q3-update) 7.3.1 20180622 (release) [AR
ARM GAS  /tmp/cc9kh5Dc.s 			page 28

